target datalayout = "e-m:e-p270:32:32-p271:32:32-p272:64:64-i64:64-i128:128-f80:128-n8:16:32:64-S128"
target triple = "x86_64-pc-linux-gnu"

%struct.AVFormatContext = type { ptr, ptr, ptr, ptr, ptr, i32, i32, ptr, i32, ptr, i32, ptr, ptr, i64, i64, i64, i32, i32, i32, i64, i64, ptr, i32, i32, ptr, i32, i32, i32, i32, ptr, i64, i32, i32, %struct.AVIOInterruptCB, i32, i32, i32, i32, i64, i32, i32, i32, i32, i32, i32, i32, i32, i32, i32, i32, i32, i64, i32, i32, i32, i32, i32, ptr, ptr, ptr, ptr, i32, ptr, ptr, ptr, ptr, i32, ptr, ptr, i64, ptr, ptr, ptr, i64 }
%struct.AVIOInterruptCB = type { ptr, ptr }
%struct.AVStream = type { ptr, i32, i32, ptr, ptr, %struct.AVRational, i64, i64, i64, i32, i32, %struct.AVRational, ptr, %struct.AVRational, %struct.AVPacket, i32, %struct.AVRational, i32 }
%struct.AVPacket = type { ptr, i64, i64, ptr, i32, i32, i32, ptr, i32, i64, i64, ptr, ptr, %struct.AVRational }
%struct.AVRational = type { i32, i32 }
%struct.SoXContext = type { i64 }
%struct.AVCodecParameters = type { i32, i32, i32, ptr, i32, ptr, i32, i32, i64, i32, i32, i32, i32, i32, i32, %struct.AVRational, %struct.AVRational, i32, i32, i32, i32, i32, i32, i32, %struct.AVChannelLayout, i32, i32, i32, i32, i32, i32 }
%struct.AVChannelLayout = type { i32, i32, %union.anon, ptr }
%union.anon = type { i64 }
%struct.AVIOContext = type { ptr, ptr, i32, ptr, ptr, ptr, ptr, ptr, ptr, i64, i32, i32, i32, i32, i32, i64, ptr, ptr, ptr, ptr, i32, i32, ptr, ptr, ptr, i32, ptr, i64, i64 }

; Function Attrs: alwaysinline nounwind uwtable
define internal i64 @avio_tell(ptr noundef %0) #4 {
  %2 = alloca ptr, align 8
  store ptr %0, ptr %2, align 8, !tbaa !29
  %3 = load ptr, ptr %2, align 8, !tbaa !29
  %4 = call i64 @avio_seek(ptr noundef %3, i64 noundef 0, i32 noundef 1)
  ret i64 %4
}

; Function Attrs: nounwind uwtable
define internal i32 @sox_write_trailer(ptr noundef %0) #0 {
  %2 = alloca ptr, align 8
  %3 = alloca ptr, align 8
  %4 = alloca ptr, align 8
  %5 = alloca ptr, align 8
  %6 = alloca i64, align 8
  %7 = alloca i64, align 8
  store ptr %0, ptr %2, align 8, !tbaa !4
  call void @llvm.lifetime.start.p0(i64 8, ptr %3) #5
  %8 = load ptr, ptr %2, align 8, !tbaa !4
  %9 = getelementptr inbounds nuw %struct.AVFormatContext, ptr %8, i32 0, i32 3
  %10 = load ptr, ptr %9, align 8, !tbaa !9
  store ptr %10, ptr %3, align 8, !tbaa !26
  call void @llvm.lifetime.start.p0(i64 8, ptr %4) #5
  %11 = load ptr, ptr %2, align 8, !tbaa !4
  %12 = getelementptr inbounds nuw %struct.AVFormatContext, ptr %11, i32 0, i32 4
  %13 = load ptr, ptr %12, align 8, !tbaa !28
  store ptr %13, ptr %4, align 8, !tbaa !29
  call void @llvm.lifetime.start.p0(i64 8, ptr %5) #5
  %14 = load ptr, ptr %2, align 8, !tbaa !4
  %15 = getelementptr inbounds nuw %struct.AVFormatContext, ptr %14, i32 0, i32 7
  %16 = load ptr, ptr %15, align 8, !tbaa !30
  %17 = getelementptr inbounds ptr, ptr %16, i64 0
  %18 = load ptr, ptr %17, align 8, !tbaa !31
  %19 = getelementptr inbounds nuw %struct.AVStream, ptr %18, i32 0, i32 3
  %20 = load ptr, ptr %19, align 8, !tbaa !33
  store ptr %20, ptr %5, align 8, !tbaa !40
  %21 = load ptr, ptr %2, align 8, !tbaa !4
  %22 = getelementptr inbounds nuw %struct.AVFormatContext, ptr %21, i32 0, i32 4
  %23 = load ptr, ptr %22, align 8, !tbaa !28
  %24 = getelementptr inbounds nuw %struct.AVIOContext, ptr %23, i32 0, i32 20
  %25 = load i32, ptr %24, align 8, !tbaa !54
  %26 = and i32 %25, 1
  %27 = icmp ne i32 %26, 0
  br i1 %27, label %28, label %54

28:                                               ; preds = %1
  call void @llvm.lifetime.start.p0(i64 8, ptr %6) #5
  %29 = load ptr, ptr %4, align 8, !tbaa !29
  %30 = call i64 @avio_tell(ptr noundef %29)
  store i64 %30, ptr %6, align 8, !tbaa !41
  call void @llvm.lifetime.start.p0(i64 8, ptr %7) #5
  %31 = load i64, ptr %6, align 8, !tbaa !41
  %32 = load ptr, ptr %3, align 8, !tbaa !26
  %33 = getelementptr inbounds nuw %struct.SoXContext, ptr %32, i32 0, i32 0
  %34 = load i64, ptr %33, align 8, !tbaa !47
  %35 = sub nsw i64 %31, %34
  %36 = sub nsw i64 %35, 4
  %37 = ashr i64 %36, 2
  store i64 %37, ptr %7, align 8, !tbaa !41
  %38 = load ptr, ptr %4, align 8, !tbaa !29
  %39 = call i64 @avio_seek(ptr noundef %38, i64 noundef 8, i32 noundef 0)
  %40 = load ptr, ptr %5, align 8, !tbaa !40
  %41 = getelementptr inbounds nuw %struct.AVCodecParameters, ptr %40, i32 0, i32 1
  %42 = load i32, ptr %41, align 4, !tbaa !49
  %43 = icmp eq i32 %42, 65544
  br i1 %43, label %44, label %47

44:                                               ; preds = %28
  %45 = load ptr, ptr %4, align 8, !tbaa !29
  %46 = load i64, ptr %7, align 8, !tbaa !41
  call void @avio_wl64(ptr noundef %45, i64 noundef %46)
  br label %50

47:                                               ; preds = %28
  %48 = load ptr, ptr %4, align 8, !tbaa !29
  %49 = load i64, ptr %7, align 8, !tbaa !41
  call void @avio_wb64(ptr noundef %48, i64 noundef %49)
  br label %50

50:                                               ; preds = %47, %44
  %51 = load ptr, ptr %4, align 8, !tbaa !29
  %52 = load i64, ptr %6, align 8, !tbaa !41
  %53 = call i64 @avio_seek(ptr noundef %51, i64 noundef %52, i32 noundef 0)
  call void @llvm.lifetime.end.p0(i64 8, ptr %7) #5
  call void @llvm.lifetime.end.p0(i64 8, ptr %6) #5
  br label %54

54:                                               ; preds = %50, %1
  call void @llvm.lifetime.end.p0(i64 8, ptr %5) #5
  call void @llvm.lifetime.end.p0(i64 8, ptr %4) #5
  call void @llvm.lifetime.end.p0(i64 8, ptr %3) #5
  ret i32 0
}