; Function Attrs: nounwind uwtable
define internal noundef i32 @sox_write_trailer(ptr noundef readonly captures(none) %0) #0 {
  %2 = getelementptr inbounds nuw i8, ptr %0, i64 32
  %3 = load ptr, ptr %2, align 8, !tbaa !24
  %4 = getelementptr inbounds nuw i8, ptr %3, i64 144
  %5 = load i32, ptr %4, align 8, !tbaa !45
  %6 = and i32 %5, 1
  %.not = icmp eq i32 %6, 0
  br i1 %.not, label %28, label %7

7:                                                ; preds = %1
  %8 = getelementptr inbounds nuw i8, ptr %0, i64 48
  %9 = load ptr, ptr %8, align 8, !tbaa !25
  %10 = load ptr, ptr %9, align 8, !tbaa !26
  %11 = getelementptr inbounds nuw i8, ptr %10, i64 16
  %12 = load ptr, ptr %11, align 8, !tbaa !28
  %13 = getelementptr inbounds nuw i8, ptr %0, i64 24
  %14 = load ptr, ptr %13, align 8, !tbaa !4
  %15 = tail call i64 @avio_seek(ptr noundef nonnull %3, i64 noundef 0, i32 noundef 1) #3
  %16 = load i64, ptr %14, align 8, !tbaa !38
  %17 = add i64 %15, -4
  %18 = sub i64 %17, %16
  %19 = ashr i64 %18, 2
  %20 = tail call i64 @avio_seek(ptr noundef nonnull %3, i64 noundef 8, i32 noundef 0) #3
  %21 = getelementptr inbounds nuw i8, ptr %12, i64 4
  %22 = load i32, ptr %21, align 4, !tbaa !40
  %23 = icmp eq i32 %22, 65544
  br i1 %23, label %24, label %25

24:                                               ; preds = %7
  tail call void @avio_wl64(ptr noundef nonnull %3, i64 noundef %19) #3
  br label %26

25:                                               ; preds = %7
  tail call void @avio_wb64(ptr noundef nonnull %3, i64 noundef %19) #3
  br label %26

26:                                               ; preds = %25, %24
  %27 = tail call i64 @avio_seek(ptr noundef nonnull %3, i64 noundef %15, i32 noundef 0) #3
  br label %28

28:                                               ; preds = %26, %1
  ret i32 0
}